target datalayout = "e-m:e-p270:32:32-p271:32:32-p272:64:64-i64:64-i128:128-f80:128-n8:16:32:64-S128"
target triple = "x86_64-pc-linux-gnu"

%struct.png_color_8_struct = type { i8, i8, i8, i8, i8 }
%struct.png_color_16_struct = type { i8, i16, i16, i16, i16 }
%struct.png_colorspace = type { i32, %struct.png_xy, %struct.png_XYZ, i16, i16 }
%struct.png_xy = type { i32, i32, i32, i32, i32, i32, i32, i32 }
%struct.png_XYZ = type { i32, i32, i32, i32, i32, i32, i32, i32, i32 }
%struct.png_info_def = type { i32, i32, i32, i64, ptr, i16, i16, i8, i8, i8, i8, i8, i8, i8, i8, [8 x i8], %struct.png_colorspace, ptr, ptr, i32, i32, i32, ptr, %struct.png_time_struct, %struct.png_color_8_struct, ptr, %struct.png_color_16_struct, %struct.png_color_16_struct, i32, i32, i8, i32, i32, i8, i32, ptr, ptr, ptr, ptr, i32, i32, ptr, ptr, i8, i8, i32, ptr, i32, ptr, i32, i8, ptr, ptr, ptr }
%struct.png_time_struct = type { i16, i8, i8, i8, i8, i8 }

; Function Attrs: nounwind uwtable
define i32 @png_get_tRNS(ptr noalias noundef %0, ptr noalias noundef %1, ptr noundef %2, ptr noundef %3, ptr noundef %4) #0 {
  %6 = alloca ptr, align 8
  %7 = alloca ptr, align 8
  %8 = alloca ptr, align 8
  %9 = alloca ptr, align 8
  %10 = alloca ptr, align 8
  %11 = alloca i32, align 4
  store ptr %0, ptr %6, align 8
  store ptr %1, ptr %7, align 8
  store ptr %2, ptr %8, align 8
  store ptr %3, ptr %9, align 8
  store ptr %4, ptr %10, align 8
  store i32 0, ptr %11, align 4
  %12 = load ptr, ptr %6, align 8
  %13 = icmp ne ptr %12, null
  br i1 %13, label %14, label %74

14:                                               ; preds = %5
  %15 = load ptr, ptr %7, align 8
  %16 = icmp ne ptr %15, null
  br i1 %16, label %17, label %74

17:                                               ; preds = %14
  %18 = load ptr, ptr %7, align 8
  %19 = getelementptr inbounds %struct.png_info_def, ptr %18, i32 0, i32 2
  %20 = load i32, ptr %19, align 8
  %21 = and i32 %20, 16
  %22 = icmp ne i32 %21, 0
  br i1 %22, label %23, label %74

23:                                               ; preds = %17
  %24 = load ptr, ptr %7, align 8
  %25 = getelementptr inbounds %struct.png_info_def, ptr %24, i32 0, i32 8
  %26 = load i8, ptr %25, align 1
  %27 = zext i8 %26 to i32
  %28 = icmp eq i32 %27, 3
  br i1 %28, label %29, label %47

29:                                               ; preds = %23
  %30 = load ptr, ptr %8, align 8
  %31 = icmp ne ptr %30, null
  br i1 %31, label %32, label %39

32:                                               ; preds = %29
  %33 = load ptr, ptr %7, align 8
  %34 = getelementptr inbounds %struct.png_info_def, ptr %33, i32 0, i32 25
  %35 = load ptr, ptr %34, align 8
  %36 = load ptr, ptr %8, align 8
  store ptr %35, ptr %36, align 8
  %37 = load i32, ptr %11, align 4
  %38 = or i32 %37, 16
  store i32 %38, ptr %11, align 4
  br label %39

39:                                               ; preds = %32, %29
  %40 = load ptr, ptr %10, align 8
  %41 = icmp ne ptr %40, null
  br i1 %41, label %42, label %46

42:                                               ; preds = %39
  %43 = load ptr, ptr %7, align 8
  %44 = getelementptr inbounds %struct.png_info_def, ptr %43, i32 0, i32 26
  %45 = load ptr, ptr %10, align 8
  store ptr %44, ptr %45, align 8
  br label %46

46:                                               ; preds = %42, %39
  br label %62

47:                                               ; preds = %23
  %48 = load ptr, ptr %10, align 8
  %49 = icmp ne ptr %48, null
  br i1 %49, label %50, label %56

50:                                               ; preds = %47
  %51 = load ptr, ptr %7, align 8
  %52 = getelementptr inbounds %struct.png_info_def, ptr %51, i32 0, i32 26
  %53 = load ptr, ptr %10, align 8
  store ptr %52, ptr %53, align 8
  %54 = load i32, ptr %11, align 4
  %55 = or i32 %54, 16
  store i32 %55, ptr %11, align 4
  br label %56

56:                                               ; preds = %50, %47
  %57 = load ptr, ptr %8, align 8
  %58 = icmp ne ptr %57, null
  br i1 %58, label %59, label %61

59:                                               ; preds = %56
  %60 = load ptr, ptr %8, align 8
  store ptr null, ptr %60, align 8
  br label %61

61:                                               ; preds = %59, %56
  br label %62

62:                                               ; preds = %61, %46
  %63 = load ptr, ptr %9, align 8
  %64 = icmp ne ptr %63, null
  br i1 %64, label %65, label %73

65:                                               ; preds = %62
  %66 = load ptr, ptr %7, align 8
  %67 = getelementptr inbounds %struct.png_info_def, ptr %66, i32 0, i32 6
  %68 = load i16, ptr %67, align 2
  %69 = zext i16 %68 to i32
  %70 = load ptr, ptr %9, align 8
  store i32 %69, ptr %70, align 4
  %71 = load i32, ptr %11, align 4
  %72 = or i32 %71, 16
  store i32 %72, ptr %11, align 4
  br label %73

73:                                               ; preds = %65, %62
  br label %74

74:                                               ; preds = %73, %17, %14, %5
  %75 = load i32, ptr %11, align 4
  ret i32 %75
}