; Function Attrs: mustprogress nofree norecurse nosync nounwind willreturn memory(argmem: readwrite) uwtable
define range(i32 0, 32) i32 @png_get_tRNS(ptr noalias noundef readnone %0, ptr noalias noundef %1, ptr noundef writeonly %2, ptr noundef writeonly %3, ptr noundef writeonly %4) local_unnamed_addr #3 {
  %6 = icmp ne ptr %0, null
  %7 = icmp ne ptr %1, null
  %or.cond = and i1 %6, %7
  br i1 %or.cond, label %8, label %33

8:                                                ; preds = %5
  %9 = getelementptr inbounds i8, ptr %1, i64 8
  %10 = load i32, ptr %9, align 8
  %11 = and i32 %10, 16
  %.not = icmp eq i32 %11, 0
  br i1 %.not, label %33, label %12

12:                                               ; preds = %8
  %13 = getelementptr inbounds i8, ptr %1, i64 37
  %14 = load i8, ptr %13, align 1
  %15 = icmp eq i8 %14, 3
  br i1 %15, label %16, label %23

16:                                               ; preds = %12
  %.not30 = icmp eq ptr %2, null
  br i1 %.not30, label %20, label %17

17:                                               ; preds = %16
  %18 = getelementptr inbounds i8, ptr %1, i64 184
  %19 = load ptr, ptr %18, align 8
  store ptr %19, ptr %2, align 8
  br label %20

20:                                               ; preds = %17, %16
  %.0 = phi i32 [ 16, %17 ], [ 0, %16 ]
  %.not31 = icmp eq ptr %4, null
  br i1 %.not31, label %28, label %21

21:                                               ; preds = %20
  %22 = getelementptr inbounds i8, ptr %1, i64 192
  store ptr %22, ptr %4, align 8
  br label %28

23:                                               ; preds = %12
  %.not28 = icmp eq ptr %4, null
  br i1 %.not28, label %26, label %24

24:                                               ; preds = %23
  %25 = getelementptr inbounds i8, ptr %1, i64 192
  store ptr %25, ptr %4, align 8
  br label %26

26:                                               ; preds = %24, %23
  %.1 = phi i32 [ 16, %24 ], [ 0, %23 ]
  %.not29 = icmp eq ptr %2, null
  br i1 %.not29, label %28, label %27

27:                                               ; preds = %26
  store ptr null, ptr %2, align 8
  br label %28

28:                                               ; preds = %26, %27, %20, %21
  %.2 = phi i32 [ %.0, %21 ], [ %.0, %20 ], [ %.1, %27 ], [ %.1, %26 ]
  %.not32 = icmp eq ptr %3, null
  br i1 %.not32, label %33, label %29

29:                                               ; preds = %28
  %30 = getelementptr inbounds i8, ptr %1, i64 34
  %31 = load i16, ptr %30, align 2
  %32 = zext i16 %31 to i32
  store i32 %32, ptr %3, align 4
  br label %33

33:                                               ; preds = %28, %29, %8, %5
  %.3 = phi i32 [ 16, %29 ], [ %.2, %28 ], [ 0, %8 ], [ 0, %5 ]
  ret i32 %.3
}